target datalayout = "e-m:e-p270:32:32-p271:32:32-p272:64:64-i64:64-i128:128-f80:128-n8:16:32:64-S128"
target triple = "x86_64-pc-linux-gnu"

%struct._address = type { i32, i32, ptr, ptr }
%struct._endpoint_item_t = type { ptr, %struct._address, i32, i32, i64, i64, i64, i64, i64, i64, i64, i64, i32, i32 }

@.str.5 = private unnamed_addr constant [17 x i8] c"ltp.session.orig\00", align 1
@.str.203 = private unnamed_addr constant [8 x i8] c"INVALID\00", align 1

; Function Attrs: nounwind uwtable
define internal ptr @ltp_endp_get_filter_type(ptr noundef %0, i32 noundef %1) #0 {
  %3 = alloca ptr, align 8
  %4 = alloca ptr, align 8
  %5 = alloca i32, align 4
  store ptr %0, ptr %4, align 8
  store i32 %1, ptr %5, align 4
  %6 = load i32, ptr %5, align 4
  switch i32 %6, label %15 [
    i32 0, label %7
    i32 1, label %7
    i32 2, label %7
  ]

7:                                                ; preds = %2, %2, %2
  %8 = load ptr, ptr %4, align 8
  %9 = getelementptr inbounds %struct._endpoint_item_t, ptr %8, i32 0, i32 1
  %10 = getelementptr inbounds %struct._address, ptr %9, i32 0, i32 0
  %11 = load i32, ptr %10, align 8
  %12 = icmp eq i32 %11, 12
  br i1 %12, label %13, label %14

13:                                               ; preds = %7
  store ptr @.str.5, ptr %3, align 8
  br label %17

14:                                               ; preds = %7
  br label %16

15:                                               ; preds = %2
  br label %16

16:                                               ; preds = %15, %14
  store ptr @.str.203, ptr %3, align 8
  br label %17

17:                                               ; preds = %16, %13
  %18 = load ptr, ptr %3, align 8
  ret ptr %18
}