; Function Attrs: mustprogress nofree norecurse nosync nounwind willreturn memory(argmem: read) uwtable
define internal noundef nonnull ptr @ltp_endp_get_filter_type(ptr noundef readonly captures(none) %0, i32 noundef %1) #2 {
  %switch = icmp ult i32 %1, 3
  br i1 %switch, label %3, label %7

3:                                                ; preds = %2
  %4 = getelementptr inbounds nuw i8, ptr %0, i64 8
  %5 = load i32, ptr %4, align 8
  %6 = icmp eq i32 %5, 12
  br i1 %6, label %8, label %7

7:                                                ; preds = %2, %3
  br label %8

8:                                                ; preds = %3, %7
  %.0 = phi ptr [ @.str.203, %7 ], [ @.str.5, %3 ]
  ret ptr %.0
}